target datalayout = "e-m:e-p270:32:32-p271:32:32-p272:64:64-i64:64-i128:128-f80:128-n8:16:32:64-S128"
target triple = "x86_64-pc-linux-gnu"

%"struct.faiss::ScalarQuantizer" = type { %"struct.faiss::Quantizer", i32, i32, float, i64, %"class.std::vector" }
%"struct.faiss::Quantizer" = type { ptr, i64, i64 }
%"class.std::vector" = type { %"struct.std::_Vector_base" }
%"struct.std::_Vector_base" = type { %"struct.std::_Vector_base<float, std::allocator<float>>::_Vector_impl" }
%"struct.std::_Vector_base<float, std::allocator<float>>::_Vector_impl" = type { %"struct.std::_Vector_base<float, std::allocator<float>>::_Vector_impl_data" }
%"struct.std::_Vector_base<float, std::allocator<float>>::_Vector_impl_data" = type { ptr, ptr, ptr }

; Function Attrs: mustprogress nounwind uwtable
define void @_ZN5faiss15ScalarQuantizer17set_derived_sizesEv(ptr noundef nonnull align 8 dereferenceable(72) %0) #1 align 2 {
  %2 = alloca ptr, align 8
  store ptr %0, ptr %2, align 8
  %3 = load ptr, ptr %2, align 8
  %4 = getelementptr inbounds %"struct.faiss::ScalarQuantizer", ptr %3, i32 0, i32 1
  %5 = load i32, ptr %4, align 8
  switch i32 %5, label %32 [
    i32 0, label %6
    i32 2, label %6
    i32 5, label %6
    i32 1, label %11
    i32 3, label %11
    i32 6, label %18
    i32 4, label %26
  ]

6:                                                ; preds = %1, %1, %1
  %7 = getelementptr inbounds %"struct.faiss::Quantizer", ptr %3, i32 0, i32 1
  %8 = load i64, ptr %7, align 8
  %9 = getelementptr inbounds %"struct.faiss::Quantizer", ptr %3, i32 0, i32 2
  store i64 %8, ptr %9, align 8
  %10 = getelementptr inbounds %"struct.faiss::ScalarQuantizer", ptr %3, i32 0, i32 4
  store i64 8, ptr %10, align 8
  br label %32

11:                                               ; preds = %1, %1
  %12 = getelementptr inbounds %"struct.faiss::Quantizer", ptr %3, i32 0, i32 1
  %13 = load i64, ptr %12, align 8
  %14 = add i64 %13, 1
  %15 = udiv i64 %14, 2
  %16 = getelementptr inbounds %"struct.faiss::Quantizer", ptr %3, i32 0, i32 2
  store i64 %15, ptr %16, align 8
  %17 = getelementptr inbounds %"struct.faiss::ScalarQuantizer", ptr %3, i32 0, i32 4
  store i64 4, ptr %17, align 8
  br label %32

18:                                               ; preds = %1
  %19 = getelementptr inbounds %"struct.faiss::Quantizer", ptr %3, i32 0, i32 1
  %20 = load i64, ptr %19, align 8
  %21 = mul i64 %20, 6
  %22 = add i64 %21, 7
  %23 = udiv i64 %22, 8
  %24 = getelementptr inbounds %"struct.faiss::Quantizer", ptr %3, i32 0, i32 2
  store i64 %23, ptr %24, align 8
  %25 = getelementptr inbounds %"struct.faiss::ScalarQuantizer", ptr %3, i32 0, i32 4
  store i64 6, ptr %25, align 8
  br label %32

26:                                               ; preds = %1
  %27 = getelementptr inbounds %"struct.faiss::Quantizer", ptr %3, i32 0, i32 1
  %28 = load i64, ptr %27, align 8
  %29 = mul i64 %28, 2
  %30 = getelementptr inbounds %"struct.faiss::Quantizer", ptr %3, i32 0, i32 2
  store i64 %29, ptr %30, align 8
  %31 = getelementptr inbounds %"struct.faiss::ScalarQuantizer", ptr %3, i32 0, i32 4
  store i64 16, ptr %31, align 8
  br label %32

32:                                               ; preds = %26, %18, %11, %6, %1
  ret void
}