; Function Attrs: mustprogress nofree norecurse nosync nounwind willreturn memory(argmem: readwrite) uwtable
define void @_ZN5faiss15ScalarQuantizer17set_derived_sizesEv(ptr nocapture noundef nonnull align 8 dereferenceable(72) %0) local_unnamed_addr #3 align 2 {
  %2 = getelementptr inbounds i8, ptr %0, i64 24
  %3 = load i32, ptr %2, align 8
  switch i32 %3, label %24 [
    i32 0, label %4
    i32 2, label %4
    i32 5, label %4
    i32 1, label %7
    i32 3, label %7
    i32 6, label %12
    i32 4, label %18
  ]

4:                                                ; preds = %1, %1, %1
  %5 = getelementptr inbounds i8, ptr %0, i64 8
  %6 = load i64, ptr %5, align 8
  br label %.sink.split

7:                                                ; preds = %1, %1
  %8 = getelementptr inbounds i8, ptr %0, i64 8
  %9 = load i64, ptr %8, align 8
  %10 = add i64 %9, 1
  %11 = lshr i64 %10, 1
  br label %.sink.split

12:                                               ; preds = %1
  %13 = getelementptr inbounds i8, ptr %0, i64 8
  %14 = load i64, ptr %13, align 8
  %15 = mul i64 %14, 6
  %16 = add i64 %15, 7
  %17 = lshr i64 %16, 3
  br label %.sink.split

18:                                               ; preds = %1
  %19 = getelementptr inbounds i8, ptr %0, i64 8
  %20 = load i64, ptr %19, align 8
  %21 = shl i64 %20, 1
  br label %.sink.split

.sink.split:                                      ; preds = %4, %7, %12, %18
  %.sink2 = phi i64 [ %21, %18 ], [ %17, %12 ], [ %11, %7 ], [ %6, %4 ]
  %.sink = phi i64 [ 16, %18 ], [ 6, %12 ], [ 4, %7 ], [ 8, %4 ]
  %22 = getelementptr inbounds i8, ptr %0, i64 16
  store i64 %.sink2, ptr %22, align 8
  %23 = getelementptr inbounds i8, ptr %0, i64 40
  store i64 %.sink, ptr %23, align 8
  br label %24

24:                                               ; preds = %.sink.split, %1
  ret void
}